target datalayout = "e-m:e-p270:32:32-p271:32:32-p272:64:64-i64:64-i128:128-f80:128-n8:16:32:64-S128"
target triple = "x86_64-pc-linux-gnu"

@.str.2 = private unnamed_addr constant [122 x i8] c"generated/home/dtcxzyw/WorkSpace/Projects/compilers/llvm-opt-benchmark/bench/gromacs/gromacs/src/gromacs/fileio/trxio.cpp\00", align 1
@.str.53 = private unnamed_addr constant [4 x i8] c"top\00", align 1

; Function Attrs: mustprogress uwtable
define internal void @_ZL13gmx_snew_implI10t_topologyEvPKcS2_iRPT_m(ptr noundef %0, ptr noundef %1, i32 noundef %2, ptr noundef nonnull align 8 dereferenceable(8) %3, i64 noundef %4) #2 {
  %6 = alloca ptr, align 8
  %7 = alloca ptr, align 8
  %8 = alloca i32, align 4
  %9 = alloca ptr, align 8
  %10 = alloca i64, align 8
  store ptr %0, ptr %6, align 8
  store ptr %1, ptr %7, align 8
  store i32 %2, ptr %8, align 4
  store ptr %3, ptr %9, align 8
  store i64 %4, ptr %10, align 8
  %11 = load ptr, ptr %6, align 8
  %12 = load ptr, ptr %7, align 8
  %13 = load i32, ptr %8, align 4
  %14 = load i64, ptr %10, align 8
  %15 = call noundef ptr @_Z11save_callocPKcS0_imm(ptr noundef %11, ptr noundef %12, i32 noundef %13, i64 noundef %14, i64 noundef 2440)
  %16 = load ptr, ptr %9, align 8
  store ptr %15, ptr %16, align 8
  ret void
}

; Function Attrs: mustprogress uwtable
define noundef ptr @_Z8read_topRKNSt10filesystem7__cxx114pathEP7PbcType(ptr noundef nonnull align 8 dereferenceable(40) %0, ptr noundef %1) #2 {
  %3 = alloca ptr, align 8
  %4 = alloca ptr, align 8
  %5 = alloca i32, align 4
  %6 = alloca i32, align 4
  %7 = alloca ptr, align 8
  store ptr %0, ptr %3, align 8
  store ptr %1, ptr %4, align 8
  call void @_ZL13gmx_snew_implI10t_topologyEvPKcS2_iRPT_m(ptr noundef @.str.53, ptr noundef @.str.2, i32 noundef 1153, ptr noundef nonnull align 8 dereferenceable(8) %7, i64 noundef 1)
  %8 = load ptr, ptr %3, align 8
  %9 = load ptr, ptr %7, align 8
  %10 = call noundef i32 @_Z12read_tpx_topRKNSt10filesystem7__cxx114pathEP10t_inputrecPA3_fPiS7_S7_P10t_topology(ptr noundef nonnull align 8 dereferenceable(40) %8, ptr noundef null, ptr noundef null, ptr noundef %5, ptr noundef null, ptr noundef null, ptr noundef %9)
  store i32 %10, ptr %6, align 4
  %11 = load ptr, ptr %4, align 8
  %12 = icmp ne ptr %11, null
  br i1 %12, label %13, label %16

13:                                               ; preds = %2
  %14 = load i32, ptr %6, align 4
  %15 = load ptr, ptr %4, align 8
  store i32 %14, ptr %15, align 4
  br label %16

16:                                               ; preds = %13, %2
  %17 = load ptr, ptr %7, align 8
  ret ptr %17
}