; Function Attrs: mustprogress uwtable
define noundef ptr @_Z8read_topRKNSt10filesystem7__cxx114pathEP7PbcType(ptr noundef nonnull align 8 dereferenceable(40) %0, ptr noundef writeonly %1) local_unnamed_addr #2 {
  %3 = alloca i32, align 4
  %4 = tail call noundef ptr @_Z11save_callocPKcS0_imm(ptr noundef nonnull @.str.53, ptr noundef nonnull @.str.2, i32 noundef 1153, i64 noundef 1, i64 noundef 2440)
  %5 = call noundef i32 @_Z12read_tpx_topRKNSt10filesystem7__cxx114pathEP10t_inputrecPA3_fPiS7_S7_P10t_topology(ptr noundef nonnull align 8 dereferenceable(40) %0, ptr noundef null, ptr noundef null, ptr noundef nonnull %3, ptr noundef null, ptr noundef null, ptr noundef %4)
  %.not = icmp eq ptr %1, null
  br i1 %.not, label %7, label %6

6:                                                ; preds = %2
  store i32 %5, ptr %1, align 4
  br label %7

7:                                                ; preds = %6, %2
  ret ptr %4
}